; Function Attrs: nounwind uwtable
define dso_local i64 @hashbpcharextended(ptr noundef readonly captures(none) %0) local_unnamed_addr #0 {
  %2 = getelementptr inbounds nuw i8, ptr %0, i64 32
  %3 = load i64, ptr %2, align 8
  %4 = inttoptr i64 %3 to ptr
  %5 = tail call ptr @pg_detoast_datum_packed(ptr noundef %4) #13
  %6 = getelementptr inbounds nuw i8, ptr %0, i64 24
  %7 = load i32, ptr %6, align 8
  %.not = icmp eq i32 %7, 0
  br i1 %.not, label %8, label %13

8:                                                ; preds = %1
  %9 = tail call zeroext i1 @errstart_cold(i32 noundef 21, ptr noundef null) #14
  tail call void @llvm.assume(i1 %9)
  %10 = tail call i32 @errcode(i32 noundef 34209924) #13
  %11 = tail call i32 (ptr, ...) @errmsg(ptr noundef nonnull @.str.4) #13
  %12 = tail call i32 (ptr, ...) @errhint(ptr noundef nonnull @.str.5) #13
  tail call void @errfinish(ptr noundef nonnull @.str.1, i32 noundef 1057, ptr noundef nonnull @__func__.hashbpcharextended) #13
  unreachable

13:                                               ; preds = %1
  %14 = load i8, ptr %5, align 1
  %15 = and i8 %14, 1
  %.not32 = icmp eq i8 %15, 0
  %.v = select i1 %.not32, i64 4, i64 1
  %16 = getelementptr inbounds nuw i8, ptr %5, i64 %.v
  %17 = zext i8 %14 to i32
  %18 = and i32 %17, 1
  %.not.i = icmp eq i32 %18, 0
  %19 = getelementptr inbounds nuw i8, ptr %5, i64 1
  %20 = icmp eq i8 %14, 1
  br i1 %20, label %21, label %29

21:                                               ; preds = %13
  %22 = load i8, ptr %19, align 1
  %23 = icmp eq i8 %22, 1
  %24 = and i8 %22, -2
  %25 = icmp eq i8 %24, 2
  %or.cond.i = or i1 %23, %25
  %26 = icmp eq i8 %22, 18
  %27 = select i1 %26, i32 16, i32 0
  %28 = select i1 %or.cond.i, i32 8, i32 %27
  br label %37

29:                                               ; preds = %13
  br i1 %.not.i, label %33, label %30

30:                                               ; preds = %29
  %31 = lshr i32 %17, 1
  %32 = add nsw i32 %31, -1
  br label %37

33:                                               ; preds = %29
  %34 = load i32, ptr %5, align 4
  %35 = lshr i32 %34, 2
  %36 = add nsw i32 %35, -4
  br label %37

37:                                               ; preds = %33, %30, %21
  %38 = phi i32 [ %28, %21 ], [ %32, %30 ], [ %36, %33 ]
  %39 = getelementptr inbounds nuw i8, ptr %5, i64 4
  %40 = select i1 %.not.i, ptr %39, ptr %19
  %41 = zext i32 %38 to i64
  %42 = tail call i32 @llvm.smin.i32(i32 %38, i32 0)
  br label %43

43:                                               ; preds = %46, %37
  %indvars.iv.i.i = phi i64 [ %indvars.iv.next.i.i, %46 ], [ %41, %37 ]
  %indvars.iv.next.i.i = add nsw i64 %indvars.iv.i.i, -1
  %44 = and i64 %indvars.iv.next.i.i, 2147483648
  %45 = icmp eq i64 %44, 0
  br i1 %45, label %46, label %bcTruelen.exit

46:                                               ; preds = %43
  %47 = and i64 %indvars.iv.next.i.i, 2147483647
  %48 = getelementptr inbounds nuw i8, ptr %40, i64 %47
  %49 = load i8, ptr %48, align 1
  %.not.i.i = icmp eq i8 %49, 32
  br i1 %.not.i.i, label %43, label %.split.loop.exit.i.i, !llvm.loop !12

.split.loop.exit.i.i:                             ; preds = %46
  %50 = trunc nuw i64 %indvars.iv.i.i to i32
  br label %bcTruelen.exit

bcTruelen.exit:                                   ; preds = %43, %.split.loop.exit.i.i
  %.0.in.lcssa.i.i = phi i32 [ %50, %.split.loop.exit.i.i ], [ %42, %43 ]
  %51 = tail call ptr @pg_newlocale_from_collation(i32 noundef %7) #13
  %52 = getelementptr inbounds nuw i8, ptr %51, i64 1
  %53 = load i8, ptr %52, align 1, !range !9, !noundef !10
  %54 = trunc nuw i8 %53 to i1
  br i1 %54, label %55, label %59

55:                                               ; preds = %bcTruelen.exit
  %56 = getelementptr inbounds nuw i8, ptr %0, i64 48
  %57 = load i64, ptr %56, align 8
  %58 = tail call i64 @hash_bytes_extended(ptr noundef nonnull %16, i32 noundef %.0.in.lcssa.i.i, i64 noundef %57) #13
  br label %74

59:                                               ; preds = %bcTruelen.exit
  %60 = sext i32 %.0.in.lcssa.i.i to i64
  %61 = tail call i64 @pg_strnxfrm(ptr noundef null, i64 noundef 0, ptr noundef nonnull %16, i64 noundef %60, ptr noundef nonnull %51) #13
  %62 = add i64 %61, 1
  %63 = tail call ptr @palloc(i64 noundef %62) #13
  %64 = tail call i64 @pg_strnxfrm(ptr noundef %63, i64 noundef %62, ptr noundef nonnull %16, i64 noundef %60, ptr noundef nonnull %51) #13
  %65 = icmp ugt i64 %64, %61
  br i1 %65, label %66, label %69

66:                                               ; preds = %59
  %67 = tail call zeroext i1 @errstart_cold(i32 noundef 21, ptr noundef null) #14
  tail call void @llvm.assume(i1 %67)
  %68 = tail call i32 (ptr, ...) @errmsg_internal(ptr noundef nonnull @.str.6) #13
  tail call void @errfinish(ptr noundef nonnull @.str.1, i32 noundef 1082, ptr noundef nonnull @__func__.hashbpcharextended) #13
  unreachable

69:                                               ; preds = %59
  %70 = trunc i64 %62 to i32
  %71 = getelementptr inbounds nuw i8, ptr %0, i64 48
  %72 = load i64, ptr %71, align 8
  %73 = tail call i64 @hash_bytes_extended(ptr noundef %63, i32 noundef %70, i64 noundef %72) #13
  tail call void @pfree(ptr noundef %63) #13
  br label %74

74:                                               ; preds = %55, %69
  %.0 = phi i64 [ %58, %55 ], [ %73, %69 ]
  %75 = load i64, ptr %2, align 8
  %76 = inttoptr i64 %75 to ptr
  %.not33 = icmp eq ptr %5, %76
  br i1 %.not33, label %78, label %77

77:                                               ; preds = %74
  tail call void @pfree(ptr noundef nonnull %5) #13
  br label %78

78:                                               ; preds = %77, %74
  ret i64 %.0
}